target datalayout = "e-m:e-p270:32:32-p271:32:32-p272:64:64-i64:64-i128:128-f80:128-n8:16:32:64-S128"
target triple = "x86_64-pc-linux-gnu"

%"class.cv::freetype::FreeType2Impl" = type { %"class.cv::freetype::FreeType2", ptr, ptr, %struct.FT_Outline_Funcs_, i8, i32, ptr }
%"class.cv::freetype::FreeType2" = type { %"class.cv::Algorithm" }
%"class.cv::Algorithm" = type { ptr }
%struct.FT_Outline_Funcs_ = type { ptr, ptr, ptr, ptr, i32, i64 }
%"class.std::__cxx11::basic_string" = type { %"struct.std::__cxx11::basic_string<char>::_Alloc_hider", i64, %union.anon }
%"struct.std::__cxx11::basic_string<char>::_Alloc_hider" = type { ptr }
%union.anon = type { i64, [8 x i8] }
%"class.std::allocator" = type { i8 }

@.str = private unnamed_addr constant [21 x i8] c"!FT_Done_Face(mFace)\00", align 1
@__func__._ZN2cv8freetype13FreeType2ImplD2Ev = private unnamed_addr constant [15 x i8] c"~FreeType2Impl\00", align 1
@.str.1 = private unnamed_addr constant [141 x i8] c"generated/home/dtcxzyw/WorkSpace/Projects/compilers/llvm-opt-benchmark/bench/opencv/contrib/opencv_contrib/modules/freetype/src/freetype.cpp\00", align 1
@.str.2 = private unnamed_addr constant [28 x i8] c"!FT_Done_FreeType(mLibrary)\00", align 1

; Function Attrs: mustprogress nounwind uwtable
define linkonce_odr hidden void @_ZNSt15__new_allocatorIcEC2Ev(ptr noundef nonnull align 1 dereferenceable(1) %0) unnamed_addr #6 comdat align 2 {
  %2 = alloca ptr, align 8
  store ptr %0, ptr %2, align 8, !tbaa !231
  ret void
}

; Function Attrs: mustprogress nounwind uwtable
define available_externally void @_ZNSaIcEC2Ev(ptr noundef nonnull align 1 dereferenceable(1) %0) unnamed_addr #6 align 2 {
  %2 = alloca ptr, align 8
  store ptr %0, ptr %2, align 8, !tbaa !68
  %3 = load ptr, ptr %2, align 8
  call void @_ZNSt15__new_allocatorIcEC2Ev(ptr noundef nonnull align 1 dereferenceable(1) %3) #3
  ret void
}

; Function Attrs: mustprogress nounwind uwtable
define void @_ZN2cv8freetype13FreeType2ImplD2Ev(ptr noundef nonnull align 8 dereferenceable(88) %0) unnamed_addr #6 align 2 personality ptr @__gxx_personality_v0 {
  %2 = alloca ptr, align 8
  %3 = alloca %"class.std::__cxx11::basic_string", align 8
  %4 = alloca %"class.std::allocator", align 1
  %5 = alloca %"class.std::__cxx11::basic_string", align 8
  %6 = alloca %"class.std::allocator", align 1
  store ptr %0, ptr %2, align 8, !tbaa !3
  %7 = load ptr, ptr %2, align 8
  %8 = getelementptr inbounds nuw %"class.cv::freetype::FreeType2Impl", ptr %7, i32 0, i32 4
  %9 = load i8, ptr %8, align 8, !tbaa !27, !range !63, !noundef !64
  %10 = trunc i8 %9 to i1
  %11 = zext i1 %10 to i32
  %12 = icmp eq i32 %11, 1
  br i1 %12, label %13, label %31

13:                                               ; preds = %1
  %14 = getelementptr inbounds nuw %"class.cv::freetype::FreeType2Impl", ptr %7, i32 0, i32 6
  %15 = load ptr, ptr %14, align 8, !tbaa !65
  invoke void @hb_font_destroy(ptr noundef %15)
          to label %16 unwind label %45

16:                                               ; preds = %13
  br label %17

17:                                               ; preds = %16
  %18 = getelementptr inbounds nuw %"class.cv::freetype::FreeType2Impl", ptr %7, i32 0, i32 2
  %19 = load ptr, ptr %18, align 8, !tbaa !66
  %20 = invoke i32 @FT_Done_Face(ptr noundef %19)
          to label %21 unwind label %45

21:                                               ; preds = %17
  %22 = icmp ne i32 %20, 0
  br i1 %22, label %24, label %23

23:                                               ; preds = %21
  br label %27

24:                                               ; preds = %21
  call void @llvm.lifetime.start.p0(i64 32, ptr %3) #3
  call void @llvm.lifetime.start.p0(i64 1, ptr %4) #3
  call void @_ZNSaIcEC2Ev(ptr noundef nonnull align 1 dereferenceable(1) %4) #3
  invoke void @_ZNSt7__cxx1112basic_stringIcSt11char_traitsIcESaIcEEC2EPKcRKS3_(ptr noundef nonnull align 8 dereferenceable(32) %3, ptr noundef @.str, ptr noundef nonnull align 1 dereferenceable(1) %4)
          to label %25 unwind label %45

25:                                               ; preds = %24
  invoke void @_ZN2cv5errorEiRKNSt7__cxx1112basic_stringIcSt11char_traitsIcESaIcEEEPKcS9_i(i32 noundef -215, ptr noundef nonnull align 8 dereferenceable(32) %3, ptr noundef @__func__._ZN2cv8freetype13FreeType2ImplD2Ev, ptr noundef @.str.1, i32 noundef 178) #21
          to label %26 unwind label %45

26:                                               ; preds = %25
  unreachable

27:                                               ; preds = %23
  br label %28

28:                                               ; preds = %27
  br label %29

29:                                               ; preds = %28
  %30 = getelementptr inbounds nuw %"class.cv::freetype::FreeType2Impl", ptr %7, i32 0, i32 4
  store i8 0, ptr %30, align 8, !tbaa !27
  br label %31

31:                                               ; preds = %29, %1
  br label %32

32:                                               ; preds = %31
  %33 = getelementptr inbounds nuw %"class.cv::freetype::FreeType2Impl", ptr %7, i32 0, i32 1
  %34 = load ptr, ptr %33, align 8, !tbaa !67
  %35 = invoke i32 @FT_Done_FreeType(ptr noundef %34)
          to label %36 unwind label %45

36:                                               ; preds = %32
  %37 = icmp ne i32 %35, 0
  br i1 %37, label %39, label %38

38:                                               ; preds = %36
  br label %42

39:                                               ; preds = %36
  call void @llvm.lifetime.start.p0(i64 32, ptr %5) #3
  call void @llvm.lifetime.start.p0(i64 1, ptr %6) #3
  call void @_ZNSaIcEC2Ev(ptr noundef nonnull align 1 dereferenceable(1) %6) #3
  invoke void @_ZNSt7__cxx1112basic_stringIcSt11char_traitsIcESaIcEEC2EPKcRKS3_(ptr noundef nonnull align 8 dereferenceable(32) %5, ptr noundef @.str.2, ptr noundef nonnull align 1 dereferenceable(1) %6)
          to label %40 unwind label %45

40:                                               ; preds = %39
  invoke void @_ZN2cv5errorEiRKNSt7__cxx1112basic_stringIcSt11char_traitsIcESaIcEEEPKcS9_i(i32 noundef -215, ptr noundef nonnull align 8 dereferenceable(32) %5, ptr noundef @__func__._ZN2cv8freetype13FreeType2ImplD2Ev, ptr noundef @.str.1, i32 noundef 181) #21
          to label %41 unwind label %45

41:                                               ; preds = %40
  unreachable

42:                                               ; preds = %38
  br label %43

43:                                               ; preds = %42
  br label %44

44:                                               ; preds = %43
  call void @_ZN2cv9AlgorithmD2Ev(ptr noundef nonnull align 8 dereferenceable(8) %7) #3
  ret void

45:                                               ; preds = %40, %39, %32, %25, %24, %17, %13
  %46 = landingpad { ptr, i32 }
          catch ptr null
  %47 = extractvalue { ptr, i32 } %46, 0
  call void @__clang_call_terminate(ptr %47) #22
  unreachable
}