; Function Attrs: mustprogress nounwind uwtable
define void @_ZN2cv8freetype13FreeType2ImplD2Ev(ptr noundef nonnull align 8 dereferenceable(88) %0) unnamed_addr #4 align 2 personality ptr @__gxx_personality_v0 {
  %2 = alloca %"class.std::__cxx11::basic_string", align 8
  %3 = alloca %"class.std::allocator", align 1
  %4 = alloca %"class.std::__cxx11::basic_string", align 8
  %5 = alloca %"class.std::allocator", align 1
  %6 = getelementptr inbounds nuw i8, ptr %0, i64 72
  %7 = load i8, ptr %6, align 8, !tbaa !25, !range !83, !noundef !84
  %8 = trunc nuw i8 %7 to i1
  br i1 %8, label %9, label %19

9:                                                ; preds = %1
  %10 = getelementptr inbounds nuw i8, ptr %0, i64 80
  %11 = load ptr, ptr %10, align 8, !tbaa !85
  invoke void @hb_font_destroy(ptr noundef %11)
          to label %12 unwind label %28

12:                                               ; preds = %9
  %13 = getelementptr inbounds nuw i8, ptr %0, i64 16
  %14 = load ptr, ptr %13, align 8, !tbaa !86
  %15 = invoke i32 @FT_Done_Face(ptr noundef %14)
          to label %16 unwind label %28

16:                                               ; preds = %12
  %.not = icmp eq i32 %15, 0
  br i1 %.not, label %18, label %17

17:                                               ; preds = %16
  call void @llvm.lifetime.start.p0(i64 32, ptr nonnull %2) #20
  call void @llvm.lifetime.start.p0(i64 1, ptr nonnull %3) #20
  invoke void @_ZNSt7__cxx1112basic_stringIcSt11char_traitsIcESaIcEEC2EPKcRKS3_(ptr noundef nonnull align 8 dereferenceable(32) %2, ptr noundef nonnull @.str, ptr noundef nonnull align 1 dereferenceable(1) %3)
          to label %.invoke unwind label %28

18:                                               ; preds = %16
  store i8 0, ptr %6, align 8, !tbaa !25
  br label %19

19:                                               ; preds = %1, %18
  %20 = getelementptr inbounds nuw i8, ptr %0, i64 8
  %21 = load ptr, ptr %20, align 8, !tbaa !87
  %22 = invoke i32 @FT_Done_FreeType(ptr noundef %21)
          to label %23 unwind label %28

23:                                               ; preds = %19
  %.not1 = icmp eq i32 %22, 0
  br i1 %.not1, label %27, label %24

24:                                               ; preds = %23
  call void @llvm.lifetime.start.p0(i64 32, ptr nonnull %4) #20
  call void @llvm.lifetime.start.p0(i64 1, ptr nonnull %5) #20
  invoke void @_ZNSt7__cxx1112basic_stringIcSt11char_traitsIcESaIcEEC2EPKcRKS3_(ptr noundef nonnull align 8 dereferenceable(32) %4, ptr noundef nonnull @.str.2, ptr noundef nonnull align 1 dereferenceable(1) %5)
          to label %.invoke unwind label %28

.invoke:                                          ; preds = %24, %17
  %25 = phi ptr [ %2, %17 ], [ %4, %24 ]
  %26 = phi i32 [ 178, %17 ], [ 181, %24 ]
  invoke void @_ZN2cv5errorEiRKNSt7__cxx1112basic_stringIcSt11char_traitsIcESaIcEEEPKcS9_i(i32 noundef -215, ptr noundef nonnull align 8 dereferenceable(32) %25, ptr noundef nonnull @__func__._ZN2cv8freetype13FreeType2ImplD2Ev, ptr noundef nonnull @.str.1, i32 noundef %26) #21
          to label %.cont unwind label %28

.cont:                                            ; preds = %.invoke
  unreachable

27:                                               ; preds = %23
  tail call void @_ZN2cv9AlgorithmD2Ev(ptr noundef nonnull align 8 dereferenceable(8) %0) #20
  ret void

28:                                               ; preds = %.invoke, %24, %19, %17, %12, %9
  %29 = landingpad { ptr, i32 }
          catch ptr null
  %30 = extractvalue { ptr, i32 } %29, 0
  call void @__clang_call_terminate(ptr %30) #24
  unreachable
}